target datalayout = "e-m:e-p270:32:32-p271:32:32-p272:64:64-i64:64-i128:128-f80:128-n8:16:32:64-S128"
target triple = "x86_64-pc-linux-gnu"

%struct.reassembly_table = type { ptr, ptr, ptr, ptr, ptr }
%struct.reassembly_table_functions = type { ptr, ptr, ptr, ptr, ptr, ptr }

@.str.324 = private unnamed_addr constant [25 x i8] c"IEC 60870-5-101/104 ASDU\00", align 1
@.str.325 = private unnamed_addr constant [14 x i8] c"iec60870_asdu\00", align 1
@proto_iec60870_asdu = internal global i32 0, align 4
@iec60870_asdu_handle = internal global ptr null, align 8
@.str.326 = private unnamed_addr constant [8 x i8] c"104asdu\00", align 1
@iec60870_reassemble_table = internal global %struct.reassembly_table zeroinitializer, align 8
@addresses_ports_reassembly_table_functions = external constant %struct.reassembly_table_functions, align 8

; Function Attrs: null_pointer_is_valid sspstrong uwtable
define hidden void @proto_register_iec60870_asdu() #0 {
  %1 = alloca ptr, align 8
  call void @llvm.lifetime.start.p0(i64 8, ptr %1) #8
  %2 = call i32 @proto_register_protocol(ptr noundef @.str.324, ptr noundef @.str.324, ptr noundef @.str.325)
  store i32 %2, ptr @proto_iec60870_asdu, align 4
  %3 = load i32, ptr @proto_iec60870_asdu, align 4
  %4 = call ptr @register_dissector(ptr noundef @.str.325, ptr noundef @dissect_iec60870_asdu, i32 noundef %3)
  store ptr %4, ptr @iec60870_asdu_handle, align 8
  %5 = load i32, ptr @proto_iec60870_asdu, align 4
  call void @proto_register_alias(i32 noundef %5, ptr noundef @.str.326)
  %6 = load i32, ptr @proto_iec60870_asdu, align 4
  call void @proto_register_field_array(i32 noundef %6, ptr noundef @proto_register_iec60870_asdu.hf_as, i32 noundef 127)
  call void @proto_register_subtree_array(ptr noundef @proto_register_iec60870_asdu.ett_as, i32 noundef 18)
  %7 = load i32, ptr @proto_iec60870_asdu, align 4
  %8 = call ptr @expert_register_protocol(i32 noundef %7)
  store ptr %8, ptr %1, align 8
  %9 = load ptr, ptr %1, align 8
  call void @expert_register_field_array(ptr noundef %9, ptr noundef @proto_register_iec60870_asdu.ei, i32 noundef 3)
  call void @reassembly_table_register(ptr noundef @iec60870_reassemble_table, ptr noundef @addresses_ports_reassembly_table_functions)
  call void @llvm.lifetime.end.p0(i64 8, ptr %1) #8
  ret void
}