; Function Attrs: null_pointer_is_valid sspstrong uwtable
define hidden void @proto_register_iec60870_asdu() local_unnamed_addr #0 {
  %1 = tail call i32 @proto_register_protocol(ptr noundef nonnull @.str.324, ptr noundef nonnull @.str.324, ptr noundef nonnull @.str.325)
  store i32 %1, ptr @proto_iec60870_asdu, align 4
  %2 = tail call ptr @register_dissector(ptr noundef nonnull @.str.325, ptr noundef nonnull @dissect_iec60870_asdu, i32 noundef %1)
  store ptr %2, ptr @iec60870_asdu_handle, align 8
  %3 = load i32, ptr @proto_iec60870_asdu, align 4
  tail call void @proto_register_alias(i32 noundef %3, ptr noundef nonnull @.str.326)
  %4 = load i32, ptr @proto_iec60870_asdu, align 4
  tail call void @proto_register_field_array(i32 noundef %4, ptr noundef nonnull @proto_register_iec60870_asdu.hf_as, i32 noundef 127)
  tail call void @proto_register_subtree_array(ptr noundef nonnull @proto_register_iec60870_asdu.ett_as, i32 noundef 18)
  %5 = load i32, ptr @proto_iec60870_asdu, align 4
  %6 = tail call ptr @expert_register_protocol(i32 noundef %5)
  tail call void @expert_register_field_array(ptr noundef %6, ptr noundef nonnull @proto_register_iec60870_asdu.ei, i32 noundef 3)
  tail call void @reassembly_table_register(ptr noundef nonnull @iec60870_reassemble_table, ptr noundef nonnull @addresses_ports_reassembly_table_functions)
  ret void
}